target datalayout = "e-m:e-p270:32:32-p271:32:32-p272:64:64-i64:64-i128:128-f80:128-n8:16:32:64-S128"
target triple = "x86_64-pc-linux-gnu"

%struct.Amap_Lib_t_ = type { ptr, ptr, ptr, ptr, ptr, ptr, ptr, ptr, ptr, i32, i32, i32, ptr, i32, i32, ptr, ptr, ptr, ptr, ptr, ptr, i32 }
%struct.Vec_Ptr_t_ = type { i32, i32, ptr }
%struct.Amap_Gat_t_ = type { ptr, ptr, ptr, ptr, double, ptr, ptr, i32, [0 x %struct.Amap_Pin_t_] }
%struct.Amap_Pin_t_ = type { ptr, i32, double, double, double, double, double, double, double }

@.str.9 = private unnamed_addr constant [2 x i8] c"\0A\00", align 1
@.str.16 = private unnamed_addr constant [21 x i8] c"%3d :%12s %d %9.2f  \00", align 1
@.str.17 = private unnamed_addr constant [11 x i8] c"%4s=%40s  \00", align 1
@.str.18 = private unnamed_addr constant [6 x i8] c"DSD: \00", align 1

; Function Attrs: nounwind uwtable
define internal ptr @Vec_PtrEntry(ptr noundef %0, i32 noundef %1) #0 {
  %3 = alloca ptr, align 8
  %4 = alloca i32, align 4
  store ptr %0, ptr %3, align 8
  store i32 %1, ptr %4, align 4
  %5 = load ptr, ptr %3, align 8
  %6 = getelementptr inbounds %struct.Vec_Ptr_t_, ptr %5, i32 0, i32 2
  %7 = load ptr, ptr %6, align 8
  %8 = load i32, ptr %4, align 4
  %9 = sext i32 %8 to i64
  %10 = getelementptr inbounds ptr, ptr %7, i64 %9
  %11 = load ptr, ptr %10, align 8
  ret ptr %11
}

; Function Attrs: nounwind uwtable
define internal i32 @Vec_PtrSize(ptr noundef %0) #0 {
  %2 = alloca ptr, align 8
  store ptr %0, ptr %2, align 8
  %3 = load ptr, ptr %2, align 8
  %4 = getelementptr inbounds %struct.Vec_Ptr_t_, ptr %3, i32 0, i32 1
  %5 = load i32, ptr %4, align 4
  ret i32 %5
}

; Function Attrs: nounwind uwtable
define void @Amap_LibPrintSelectedGates(ptr noundef %0, i32 noundef %1) #0 {
  %3 = alloca ptr, align 8
  %4 = alloca i32, align 4
  %5 = alloca ptr, align 8
  %6 = alloca ptr, align 8
  %7 = alloca i32, align 4
  store ptr %0, ptr %3, align 8
  store i32 %1, ptr %4, align 4
  %8 = load i32, ptr %4, align 4
  %9 = icmp ne i32 %8, 0
  br i1 %9, label %10, label %14

10:                                               ; preds = %2
  %11 = load ptr, ptr %3, align 8
  %12 = getelementptr inbounds %struct.Amap_Lib_t_, ptr %11, i32 0, i32 1
  %13 = load ptr, ptr %12, align 8
  br label %18

14:                                               ; preds = %2
  %15 = load ptr, ptr %3, align 8
  %16 = getelementptr inbounds %struct.Amap_Lib_t_, ptr %15, i32 0, i32 3
  %17 = load ptr, ptr %16, align 8
  br label %18

18:                                               ; preds = %14, %10
  %19 = phi ptr [ %13, %10 ], [ %17, %14 ]
  store ptr %19, ptr %5, align 8
  store i32 0, ptr %7, align 4
  br label %20

20:                                               ; preds = %60, %18
  %21 = load i32, ptr %7, align 4
  %22 = load ptr, ptr %5, align 8
  %23 = call i32 @Vec_PtrSize(ptr noundef %22)
  %24 = icmp slt i32 %21, %23
  br i1 %24, label %25, label %29

25:                                               ; preds = %20
  %26 = load ptr, ptr %5, align 8
  %27 = load i32, ptr %7, align 4
  %28 = call ptr @Vec_PtrEntry(ptr noundef %26, i32 noundef %27)
  store ptr %28, ptr %6, align 8
  br label %29

29:                                               ; preds = %25, %20
  %30 = phi i1 [ false, %20 ], [ true, %25 ]
  br i1 %30, label %31, label %63

31:                                               ; preds = %29
  %32 = load i32, ptr %7, align 4
  %33 = load ptr, ptr %6, align 8
  %34 = getelementptr inbounds %struct.Amap_Gat_t_, ptr %33, i32 0, i32 2
  %35 = load ptr, ptr %34, align 8
  %36 = load ptr, ptr %6, align 8
  %37 = getelementptr inbounds %struct.Amap_Gat_t_, ptr %36, i32 0, i32 7
  %38 = load i32, ptr %37, align 8
  %39 = lshr i32 %38, 24
  %40 = load ptr, ptr %6, align 8
  %41 = getelementptr inbounds %struct.Amap_Gat_t_, ptr %40, i32 0, i32 4
  %42 = load double, ptr %41, align 8
  %43 = call i32 (ptr, ...) @printf(ptr noundef @.str.16, i32 noundef %32, ptr noundef %35, i32 noundef %39, double noundef %42)
  %44 = load ptr, ptr %6, align 8
  %45 = getelementptr inbounds %struct.Amap_Gat_t_, ptr %44, i32 0, i32 3
  %46 = load ptr, ptr %45, align 8
  %47 = load ptr, ptr %6, align 8
  %48 = getelementptr inbounds %struct.Amap_Gat_t_, ptr %47, i32 0, i32 5
  %49 = load ptr, ptr %48, align 8
  %50 = call i32 (ptr, ...) @printf(ptr noundef @.str.17, ptr noundef %46, ptr noundef %49)
  %51 = call i32 (ptr, ...) @printf(ptr noundef @.str.18)
  %52 = load ptr, ptr %6, align 8
  %53 = getelementptr inbounds %struct.Amap_Gat_t_, ptr %52, i32 0, i32 6
  %54 = load ptr, ptr %53, align 8
  %55 = load ptr, ptr %6, align 8
  %56 = getelementptr inbounds %struct.Amap_Gat_t_, ptr %55, i32 0, i32 7
  %57 = load i32, ptr %56, align 8
  %58 = lshr i32 %57, 24
  call void @Kit_DsdPrintFromTruth(ptr noundef %54, i32 noundef %58)
  %59 = call i32 (ptr, ...) @printf(ptr noundef @.str.9)
  br label %60

60:                                               ; preds = %31
  %61 = load i32, ptr %7, align 4
  %62 = add nsw i32 %61, 1
  store i32 %62, ptr %7, align 4
  br label %20, !llvm.loop !12

63:                                               ; preds = %29
  ret void
}