; Function Attrs: nounwind uwtable
define void @Amap_LibPrintSelectedGates(ptr noundef readonly captures(none) %0, i32 noundef %1) local_unnamed_addr #0 {
  %.not = icmp eq i32 %1, 0
  %.in.v = select i1 %.not, i64 24, i64 8
  %.in = getelementptr inbounds nuw i8, ptr %0, i64 %.in.v
  %3 = load ptr, ptr %.in, align 8
  %4 = getelementptr i8, ptr %3, i64 4
  %.val16 = load i32, ptr %4, align 4
  %5 = icmp sgt i32 %.val16, 0
  br i1 %5, label %.lr.ph, label %.critedge

.lr.ph:                                           ; preds = %2
  %6 = getelementptr i8, ptr %3, i64 8
  br label %7

7:                                                ; preds = %.lr.ph, %7
  %indvars.iv = phi i64 [ 0, %.lr.ph ], [ %indvars.iv.next, %7 ]
  %.val15 = load ptr, ptr %6, align 8
  %8 = getelementptr inbounds nuw ptr, ptr %.val15, i64 %indvars.iv
  %9 = load ptr, ptr %8, align 8
  %10 = getelementptr inbounds nuw i8, ptr %9, i64 16
  %11 = load ptr, ptr %10, align 8
  %12 = getelementptr inbounds nuw i8, ptr %9, i64 56
  %13 = load i32, ptr %12, align 8
  %14 = lshr i32 %13, 24
  %15 = getelementptr inbounds nuw i8, ptr %9, i64 32
  %16 = load double, ptr %15, align 8
  %17 = trunc nuw nsw i64 %indvars.iv to i32
  %18 = tail call i32 (ptr, ...) @printf(ptr noundef nonnull dereferenceable(1) @.str.16, i32 noundef %17, ptr noundef %11, i32 noundef %14, double noundef %16)
  %19 = getelementptr inbounds nuw i8, ptr %9, i64 24
  %20 = load ptr, ptr %19, align 8
  %21 = getelementptr inbounds nuw i8, ptr %9, i64 40
  %22 = load ptr, ptr %21, align 8
  %23 = tail call i32 (ptr, ...) @printf(ptr noundef nonnull dereferenceable(1) @.str.17, ptr noundef %20, ptr noundef %22)
  %24 = tail call i32 (ptr, ...) @printf(ptr noundef nonnull dereferenceable(1) @.str.18)
  %25 = getelementptr inbounds nuw i8, ptr %9, i64 48
  %26 = load ptr, ptr %25, align 8
  %27 = load i32, ptr %12, align 8
  %28 = lshr i32 %27, 24
  tail call void @Kit_DsdPrintFromTruth(ptr noundef %26, i32 noundef %28) #22
  %putchar = tail call i32 @putchar(i32 10)
  %indvars.iv.next = add nuw nsw i64 %indvars.iv, 1
  %.val = load i32, ptr %4, align 4
  %29 = sext i32 %.val to i64
  %30 = icmp slt i64 %indvars.iv.next, %29
  br i1 %30, label %7, label %.critedge, !llvm.loop !12

.critedge:                                        ; preds = %7, %2
  ret void
}